c__builtin__
set
p0
((lp1
S'https://michaelbennet.com/vision/restore-american-values/'
p2
aS'https://store.michaelbennet.com'
p3
aS'https://michaelbennet.com/climateplan/'
p4
aS'https://michaelbennet.com/get-involved/'
p5
aS'https://michaelbennet.com/vision/'
p6
aS'https://michaelbennet.com/meet-michael/'
p7
aS'https://michaelbennet.com/vision/drive-economic-opportunity/'
p8
aS'https://es.michaelbennet.com'
p9
aS'https://michaelbennet.com/get-involved-2020/'
p10
aS'https://michaelbennet.com/vision/fix-our-broken-politics/'
p11
aS'https://michaelbennet.com/politicalreform/'
p12
aS'https://michaelbennet.com/20for20/'
p13
atp14
Rp15
.