c__builtin__
set
p0
((lp1
S'https://joebiden.com/joes-story/'
p2
aS'https://www.mobilize.us/joebiden/'
p3
aS'https://www.youtube.com/joebiden'
p4
aS'https://joebiden.com/es/la-vision-de-joe/'
p5
aS'https://twitter.com/joebiden'
p6
aS'https://www.instagram.com/joebiden'
p7
aS'https://store.joebiden.com/'
p8
aS'https://jobs.lever.co/joebiden'
p9
aS'https://joebiden.com/joes-vision/'
p10
aS'https://joebiden.com/join/'
p11
aS'https://www.facebook.com/joebiden'
p12
aS'https://joebiden.com/privacy-policy/'
p13
aS'https://joebiden.com/terms/'
p14
aS'https://go.joebiden.com/page/s/contact-us'
p15
atp16
Rp17
.