c__builtin__
set
p0
((lp1
S'https://store.peteforamerica.com'
p2
aS'https://www.mobilize.us/peteforamerica/'
p3
aS'https://peteforamerica.com/meet-pete/'
p4
aS'https://peteforamerica.com/issues/'
p5
atp6
Rp7
.