c__builtin__
set
p0
((lp1
S'https://secure.actblue.com/donate/pete-buttigieg-announcement-day?refcode=website'
p2
aS'https://store.peteforamerica.com'
p3
aS'https://www.mobilize.us/peteforamerica/'
p4
aS'https://peteforamerica.com/meet-pete/'
p5
aS'https://peteforamerica.com/issues/'
p6
atp7
Rp8
.