c__builtin__
set
p0
((lp1
S'https://www.julianforthefuture.com/news-events/'
p2
aS'https://www.julianforthefuture.com/about/'
p3
aS'https://store.julianforthefuture.com/'
p4
aS'https://action.julianforthefuture.com/page/s/get-updates'
p5
aS'https://mobilize.us/julianforthefuture'
p6
atp7
Rp8
.