c__builtin__
set
p0
((lp1
S'http://juliancastro.com'
p2
aS'https://issues.juliancastro.com/people-first-education/'
p3
aS'https://issues.juliancastro.com/people-first-immigration/'
p4
aS'https://issues.juliancastro.com/eliminate-lead-exposure/'
p5
aS'https://issues.juliancastro.com/people-first-policing/'
p6
aS'https://issues.juliancastro.com/people-first-housing/'
p7
atp8
Rp9
.