c__builtin__
set
p0
((lp1
S'https://www.johndelaney.com/issues/'
p2
aS'https://www.johndelaney.com/es/'
p3
aS'https://www.johndelaney.com/about/'
p4
aS'https://www.johndelaney.com/states/new-hampshire/'
p5
aS'https://www.johndelaney.com/news/'
p6
aS'https://www.johndelaney.com/about/april/'
p7
aS'https://www.johndelaney.com/states/iowa/'
p8
aS'https://www.johndelaney.com/events/'
p9
aS'https://store.johndelaney.com'
p10
atp11
Rp12
.