c__builtin__
set
p0
((lp1
S'https://store.kirstengillibrand.com/'
p2
aS'https://secure.actblue.com/donate/kg-website-2020?refcode=website-donate'
p3
aS'https://kirstengillibrand.formstack.com/forms/join?source_code=website'
p4
aS'https://kirstengillibrand.com/issues/'
p5
aS'https://kirstengillibrand.com/brave/'
p6
aS'https://kirstengillibrand.com/es/asuntos/'
p7
atp8
Rp9
.