c__builtin__
set
p0
((lp1
Vhttps://www.mobilize.us/kamalaharris/?utm_source=web&utm_medium=homepage&utm_content=primary_nav
p2
aS'https://kamalaharris.org/meet-kamala/'
p3
aS'http://store.kamalaharris.org/'
p4
aS'https://kamalaharris.org/'
p5
aS'https://action.kamalaharris.org/signup/volunteer-website/?source=homepage'
p6
aS'https://kamalaharris.org/issues/'
p7
aS'https://action.kamalaharris.org/signup/sign-up/?source=join-us'
p8
atp9
Rp10
.