c__builtin__
set
p0
((lp1
S'https://secure.actblue.com/donate/kdh-q1-website?refcode=nav-donate-launch'
p2
aVhttps://www.mobilize.us/kamalaharris/?utm_source=web&utm_medium=homepage&utm_content=primary_nav
p3
aS'https://kamalaharris.org/meet-kamala/'
p4
aS'http://store.kamalaharris.org/'
p5
aS'https://kamalaharris.org/'
p6
aS'/cdn-cgi/l/email-protection#f3819680869e9680b398929e929f929b9281819a80dd9c8194'
p7
aS'https://action.kamalaharris.org/signup/volunteer-website/?source=homepage'
p8
aS'https://kamalaharris.org/issues/'
p9
aS'https://action.kamalaharris.org/signup/sign-up/?source=join-us'
p10
atp11
Rp12
.