c__builtin__
set
p0
((lp1
S'https://events.mobilizeamerica.io/hickenlooper2020/'
p2
aS'http://store.hickenlooper.com/'
p3
aS'https://www.hickenlooper.com/about/'
p4
aS'https://www.hickenlooper.com/'
p5
aS'https://hick2020.apollosites.app'
p6
atp7
Rp8
.