c__builtin__
set
p0
((lp1
S'/climate-mission'
p2
aS'/washington-story'
p3
aS'/espanol'
p4
aS'/jobs'
p5
aS'/store'
p6
aS'https://secure.actblue.com/donate/our-moment?refcode=menu-btn-issues'
p7
aS'/meet-jay'
p8
aS'/issues'
p9
aS'/join'
p10
atp11
Rp12
.