c__builtin__
set
p0
((lp1
S'/join-us'
p2
aS'/events'
p3
aS'https://amyklobuchar.com/issues/a-strong-democracy/'
p4
aS'http://store.amyklobuchar.com'
p5
aS'/donate?refcode=website-header'
p6
aS'https://amyklobuchar.com/issues/'
p7
aS'https://amyklobuchar.com/issues/shared-prosperity-and-economic-justice/'
p8
aS'https://amyklobuchar.com/issues/health-care/'
p9
aS'https://amyklobuchar.com/issues/climate/'
p10
aS'https://amyklobuchar.com/issues/a-safer-world/'
p11
atp12
Rp13
.