c__builtin__
set
p0
((lp1
S'https://timryanforamerica.com/meet-tim/'
p2
aS'//secure.timryanforamerica.com/page/s/sign-up-to-volunteer'
p3
aS'//store.timryanforamerica.com/'
p4
aS'https://timryanforamerica.com/events/'
p5
aS'/taxes'
p6
aS'https://timryanforamerica.com/issues/'
p7
atp8
Rp9
.