c__builtin__
set
p0
((lp1
S'https://ericswalwell.com/volunteer/'
p2
aS'/events'
p3
aS'https://es.ericswalwell.com'
p4
aS'https://ericswalwell.com/why-im-running/'
p5
aS'https://ericswalwell.com/my-story/'
p6
aS'https://ericswalwell.com/endgunviolence/'
p7
aS'https://ericswalwell.com/my-plan/'
p8
aS'https://ericswalwell.com/sign-up/'
p9
aS'/store'
p10
atp11
Rp12
.