c__builtin__
set
p0
((lp1
S'/meet-elizabeth'
p2
aVhttps://my.elizabethwarren.com/page/s/web-volunteer?refcode=web-nav
p3
aVhttps://www.mobilize.us/elizabethwarren/?questionnaire_state=hide
p4
aS'https://shop.elizabethwarren.com'
p5
aS'/join-us'
p6
aS'/issues'
p7
aS'/es/asuntos-importantes'
p8
atp9
Rp10
.