c__builtin__
set
p0
((lp1
S'https://www.yang2020.com/policies/'
p2
aS'https://shop.yang2020.com/'
p3
aS'https://my.yang2020.com/'
p4
aS'https://www.yang2020.com/what-is-ubi/'
p5
aS'https://www.yang2020.com/meet-andrew/'
p6
atp7
Rp8
.